target datalayout = "e-m:e-p270:32:32-p271:32:32-p272:64:64-i64:64-i128:128-f80:128-n8:16:32:64-S128"
target triple = "x86_64-pc-linux-gnu"

%struct.lua_State = type { %struct.GCRef, i8, i8, i8, i8, %struct.MRef, %struct.GCRef, ptr, ptr, %struct.MRef, %struct.MRef, %struct.GCRef, %struct.GCRef, ptr, i32 }
%struct.MRef = type { i64 }
%struct.GCRef = type { i64 }
%union.TValue = type { i64 }
%struct.GCfuncC = type { %struct.GCRef, i8, i8, i8, i8, %struct.GCRef, %struct.GCRef, %struct.MRef, ptr, [1 x %union.TValue] }
%struct.global_State = type { ptr, ptr, %struct.GCState, %struct.GCstr, i8, i8, i8, i8, %struct.StrInternState, i32, %struct.GCRef, %struct.SBuf, %union.TValue, %union.TValue, %struct.Node, %union.TValue, %struct.GCupval, i32, i32, ptr, ptr, ptr, i32, i32, %struct.GCRef, %struct.MRef, %struct.MRef, %struct.PRNGState, [39 x %struct.GCRef] }
%struct.GCState = type { i64, i64, i8, i8, i8, i8, i32, %struct.GCRef, %struct.MRef, %struct.GCRef, %struct.GCRef, %struct.GCRef, %struct.GCRef, i64, i64, i32, i32, %struct.MRef }
%struct.GCstr = type { %struct.GCRef, i8, i8, i8, i8, i32, i32, i32 }
%struct.StrInternState = type { ptr, i32, i32, i32, i8, i8, i8, i8, i64 }
%struct.SBuf = type { ptr, ptr, ptr, %struct.MRef }
%struct.Node = type { %union.TValue, %union.TValue, %struct.MRef }
%struct.GCupval = type { %struct.GCRef, i8, i8, i8, i8, %union.anon, %struct.MRef, i32 }
%union.anon = type { %struct.anon.1 }
%struct.anon.1 = type { %struct.GCRef, %struct.GCRef }
%struct.PRNGState = type { [4 x i64] }
%struct.GCcdata = type { %struct.GCRef, i8, i8, i16 }
%struct.CTState = type { ptr, i32, i32, ptr, ptr, ptr, %struct.CCallback, [128 x i16] }
%struct.CCallback = type { [8 x %union.FPRCBArg], [8 x i64], ptr, ptr, ptr, i32, i32, i32 }
%union.FPRCBArg = type { double }
%struct.CType = type { i32, i32, i16, i16, %struct.GCRef }

@.str.1 = private unnamed_addr constant [24 x i8] c"store to dead GC object\00", align 1

; Function Attrs: alwaysinline nounwind uwtable
define internal void @checklivetv(ptr noundef %0, ptr noundef %1, ptr noundef %2) #3 {
  %4 = alloca ptr, align 8
  %5 = alloca ptr, align 8
  %6 = alloca ptr, align 8
  store ptr %0, ptr %4, align 8, !tbaa !4
  store ptr %1, ptr %5, align 8, !tbaa !19
  store ptr %2, ptr %6, align 8, !tbaa !51
  ret void
}

; Function Attrs: alwaysinline nounwind uwtable
define internal void @setgcVraw(ptr noundef %0, ptr noundef %1, i32 noundef %2) #3 {
  %4 = alloca ptr, align 8
  %5 = alloca ptr, align 8
  %6 = alloca i32, align 4
  store ptr %0, ptr %4, align 8, !tbaa !19
  store ptr %1, ptr %5, align 8, !tbaa !49
  store i32 %2, ptr %6, align 4, !tbaa !9
  %7 = load ptr, ptr %5, align 8, !tbaa !49
  %8 = ptrtoint ptr %7 to i64
  %9 = load i32, ptr %6, align 4, !tbaa !9
  %10 = zext i32 %9 to i64
  %11 = shl i64 %10, 47
  %12 = or i64 %8, %11
  %13 = load ptr, ptr %4, align 8, !tbaa !19
  %14 = getelementptr inbounds nuw %struct.GCRef, ptr %13, i32 0, i32 0
  store i64 %12, ptr %14, align 8, !tbaa !18
  ret void
}

; Function Attrs: alwaysinline nounwind uwtable
define internal void @setgcV(ptr noundef %0, ptr noundef %1, ptr noundef %2, i32 noundef %3) #3 {
  %5 = alloca ptr, align 8
  %6 = alloca ptr, align 8
  %7 = alloca ptr, align 8
  %8 = alloca i32, align 4
  store ptr %0, ptr %5, align 8, !tbaa !4
  store ptr %1, ptr %6, align 8, !tbaa !19
  store ptr %2, ptr %7, align 8, !tbaa !49
  store i32 %3, ptr %8, align 4, !tbaa !9
  %9 = load ptr, ptr %6, align 8, !tbaa !19
  %10 = load ptr, ptr %7, align 8, !tbaa !49
  %11 = load i32, ptr %8, align 4, !tbaa !9
  call void @setgcVraw(ptr noundef %9, ptr noundef %10, i32 noundef %11)
  %12 = load ptr, ptr %5, align 8, !tbaa !4
  %13 = load ptr, ptr %6, align 8, !tbaa !19
  call void @checklivetv(ptr noundef %12, ptr noundef %13, ptr noundef @.str.1)
  ret void
}

; Function Attrs: alwaysinline nounwind uwtable
define internal void @setcdataV(ptr noundef %0, ptr noundef %1, ptr noundef %2) #3 {
  %4 = alloca ptr, align 8
  %5 = alloca ptr, align 8
  %6 = alloca ptr, align 8
  store ptr %0, ptr %4, align 8, !tbaa !4
  store ptr %1, ptr %5, align 8, !tbaa !19
  store ptr %2, ptr %6, align 8, !tbaa !43
  %7 = load ptr, ptr %4, align 8, !tbaa !4
  %8 = load ptr, ptr %5, align 8, !tbaa !19
  %9 = load ptr, ptr %6, align 8, !tbaa !43
  call void @setgcV(ptr noundef %7, ptr noundef %8, ptr noundef %9, i32 noundef -11)
  ret void
}

; Function Attrs: alwaysinline nounwind uwtable
define internal ptr @lj_cdata_new_(ptr noundef %0, i32 noundef %1, i32 noundef %2) #3 {
  %4 = alloca ptr, align 8
  %5 = alloca i32, align 4
  %6 = alloca i32, align 4
  %7 = alloca ptr, align 8
  store ptr %0, ptr %4, align 8, !tbaa !4
  store i32 %1, ptr %5, align 4, !tbaa !9
  store i32 %2, ptr %6, align 4, !tbaa !9
  call void @llvm.lifetime.start.p0(i64 8, ptr %7) #6
  %8 = load ptr, ptr %4, align 8, !tbaa !4
  %9 = load i32, ptr %6, align 4, !tbaa !9
  %10 = zext i32 %9 to i64
  %11 = add i64 16, %10
  %12 = call ptr @lj_mem_newgco(ptr noundef %8, i64 noundef %11)
  store ptr %12, ptr %7, align 8, !tbaa !43
  %13 = load ptr, ptr %7, align 8, !tbaa !43
  %14 = getelementptr inbounds nuw %struct.GCcdata, ptr %13, i32 0, i32 2
  store i8 10, ptr %14, align 1, !tbaa !45
  %15 = load i32, ptr %5, align 4, !tbaa !9
  %16 = trunc i32 %15 to i16
  %17 = load ptr, ptr %7, align 8, !tbaa !43
  %18 = getelementptr inbounds nuw %struct.GCcdata, ptr %17, i32 0, i32 3
  store i16 %16, ptr %18, align 2, !tbaa !48
  %19 = load ptr, ptr %7, align 8, !tbaa !43
  call void @llvm.lifetime.end.p0(i64 8, ptr %7) #6
  ret ptr %19
}

; Function Attrs: alwaysinline nounwind uwtable
define internal i32 @ctype_check(ptr noundef %0, i32 noundef %1) #3 {
  %3 = alloca ptr, align 8
  %4 = alloca i32, align 4
  store ptr %0, ptr %3, align 8, !tbaa !23
  store i32 %1, ptr %4, align 4, !tbaa !9
  %5 = load i32, ptr %4, align 4, !tbaa !9
  ret i32 %5
}

; Function Attrs: nounwind uwtable
define internal i32 @bit_result64(ptr noundef %0, i32 noundef %1, i64 noundef %2) #0 {
  %4 = alloca ptr, align 8
  %5 = alloca i32, align 4
  %6 = alloca i64, align 8
  %7 = alloca ptr, align 8
  store ptr %0, ptr %4, align 8, !tbaa !4
  store i32 %1, ptr %5, align 4, !tbaa !9
  store i64 %2, ptr %6, align 8, !tbaa !17
  call void @llvm.lifetime.start.p0(i64 8, ptr %7) #6
  %8 = load ptr, ptr %4, align 8, !tbaa !4
  %9 = load i32, ptr %5, align 4, !tbaa !9
  %10 = call ptr @lj_cdata_new_(ptr noundef %8, i32 noundef %9, i32 noundef 8)
  store ptr %10, ptr %7, align 8, !tbaa !43
  %11 = load i64, ptr %6, align 8, !tbaa !17
  %12 = load ptr, ptr %7, align 8, !tbaa !43
  %13 = getelementptr inbounds %struct.GCcdata, ptr %12, i64 1
  store i64 %11, ptr %13, align 8, !tbaa !17
  %14 = load ptr, ptr %4, align 8, !tbaa !4
  %15 = load ptr, ptr %4, align 8, !tbaa !4
  %16 = getelementptr inbounds nuw %struct.lua_State, ptr %15, i32 0, i32 7
  %17 = load ptr, ptr %16, align 8, !tbaa !11
  %18 = getelementptr inbounds %union.TValue, ptr %17, i64 -1
  %19 = getelementptr inbounds %union.TValue, ptr %18, i64 -1
  %20 = load ptr, ptr %7, align 8, !tbaa !43
  call void @setcdataV(ptr noundef %14, ptr noundef %19, ptr noundef %20)
  call void @llvm.lifetime.end.p0(i64 8, ptr %7) #6
  ret i32 2
}

; Function Attrs: alwaysinline nounwind uwtable
define internal ptr @ctype_get(ptr noundef %0, i32 noundef %1) #3 {
  %3 = alloca ptr, align 8
  %4 = alloca i32, align 4
  store ptr %0, ptr %3, align 8, !tbaa !23
  store i32 %1, ptr %4, align 4, !tbaa !9
  %5 = load ptr, ptr %3, align 8, !tbaa !23
  %6 = getelementptr inbounds nuw %struct.CTState, ptr %5, i32 0, i32 0
  %7 = load ptr, ptr %6, align 8, !tbaa !60
  %8 = load ptr, ptr %3, align 8, !tbaa !23
  %9 = load i32, ptr %4, align 4, !tbaa !9
  %10 = call i32 @ctype_check(ptr noundef %8, i32 noundef %9)
  %11 = zext i32 %10 to i64
  %12 = getelementptr inbounds nuw %struct.CType, ptr %7, i64 %11
  ret ptr %12
}

; Function Attrs: alwaysinline nounwind uwtable
define internal ptr @ctype_cts(ptr noundef %0) #3 {
  %2 = alloca ptr, align 8
  %3 = alloca ptr, align 8
  store ptr %0, ptr %2, align 8, !tbaa !4
  call void @llvm.lifetime.start.p0(i64 8, ptr %3) #6
  %4 = load ptr, ptr %2, align 8, !tbaa !4
  %5 = getelementptr inbounds nuw %struct.lua_State, ptr %4, i32 0, i32 5
  %6 = getelementptr inbounds nuw %struct.MRef, ptr %5, i32 0, i32 0
  %7 = load i64, ptr %6, align 8, !tbaa !30
  %8 = inttoptr i64 %7 to ptr
  %9 = getelementptr inbounds nuw %struct.global_State, ptr %8, i32 0, i32 26
  %10 = getelementptr inbounds nuw %struct.MRef, ptr %9, i32 0, i32 0
  %11 = load i64, ptr %10, align 8, !tbaa !52
  %12 = inttoptr i64 %11 to ptr
  store ptr %12, ptr %3, align 8, !tbaa !23
  %13 = load ptr, ptr %2, align 8, !tbaa !4
  %14 = load ptr, ptr %3, align 8, !tbaa !23
  %15 = getelementptr inbounds nuw %struct.CTState, ptr %14, i32 0, i32 3
  store ptr %13, ptr %15, align 8, !tbaa !53
  %16 = load ptr, ptr %3, align 8, !tbaa !23
  call void @llvm.lifetime.end.p0(i64 8, ptr %3) #6
  ret ptr %16
}

; Function Attrs: nounwind uwtable
define internal i32 @lj_ffh_bit_band(ptr noundef %0) #0 {
  %2 = alloca i32, align 4
  %3 = alloca ptr, align 8
  %4 = alloca i32, align 4
  %5 = alloca ptr, align 8
  %6 = alloca ptr, align 8
  %7 = alloca i32, align 4
  %8 = alloca ptr, align 8
  %9 = alloca ptr, align 8
  %10 = alloca i32, align 4
  %11 = alloca i64, align 8
  %12 = alloca i64, align 8
  %13 = alloca i32, align 4
  store ptr %0, ptr %3, align 8, !tbaa !4
  call void @llvm.lifetime.start.p0(i64 4, ptr %4) #6
  store i32 0, ptr %4, align 4, !tbaa !9
  call void @llvm.lifetime.start.p0(i64 8, ptr %5) #6
  %14 = load ptr, ptr %3, align 8, !tbaa !4
  %15 = getelementptr inbounds nuw %struct.lua_State, ptr %14, i32 0, i32 7
  %16 = load ptr, ptr %15, align 8, !tbaa !11
  store ptr %16, ptr %5, align 8, !tbaa !19
  call void @llvm.lifetime.start.p0(i64 8, ptr %6) #6
  %17 = load ptr, ptr %3, align 8, !tbaa !4
  %18 = getelementptr inbounds nuw %struct.lua_State, ptr %17, i32 0, i32 8
  %19 = load ptr, ptr %18, align 8, !tbaa !20
  store ptr %19, ptr %6, align 8, !tbaa !19
  call void @llvm.lifetime.start.p0(i64 4, ptr %7) #6
  store i32 0, ptr %7, align 4, !tbaa !9
  br label %20

20:                                               ; preds = %25, %1
  %21 = load ptr, ptr %3, align 8, !tbaa !4
  %22 = load i32, ptr %7, align 4, !tbaa !9
  %23 = add nsw i32 %22, 1
  store i32 %23, ptr %7, align 4, !tbaa !9
  %24 = call i64 @lj_carith_check64(ptr noundef %21, i32 noundef %23, ptr noundef %4)
  br label %25

25:                                               ; preds = %20
  %26 = load ptr, ptr %5, align 8, !tbaa !19
  %27 = getelementptr inbounds nuw %union.TValue, ptr %26, i32 1
  store ptr %27, ptr %5, align 8, !tbaa !19
  %28 = load ptr, ptr %6, align 8, !tbaa !19
  %29 = icmp ult ptr %27, %28
  br i1 %29, label %20, label %30, !llvm.loop !21

30:                                               ; preds = %25
  %31 = load i32, ptr %4, align 4, !tbaa !9
  %32 = icmp ne i32 %31, 0
  br i1 %32, label %33, label %90

33:                                               ; preds = %30
  call void @llvm.lifetime.start.p0(i64 8, ptr %8) #6
  %34 = load ptr, ptr %3, align 8, !tbaa !4
  %35 = call ptr @ctype_cts(ptr noundef %34)
  store ptr %35, ptr %8, align 8, !tbaa !23
  call void @llvm.lifetime.start.p0(i64 8, ptr %9) #6
  %36 = load ptr, ptr %8, align 8, !tbaa !23
  %37 = load i32, ptr %4, align 4, !tbaa !9
  %38 = call ptr @ctype_get(ptr noundef %36, i32 noundef %37)
  store ptr %38, ptr %9, align 8, !tbaa !25
  call void @llvm.lifetime.start.p0(i64 4, ptr %10) #6
  %39 = load ptr, ptr %3, align 8, !tbaa !4
  %40 = getelementptr inbounds nuw %struct.lua_State, ptr %39, i32 0, i32 7
  %41 = load ptr, ptr %40, align 8, !tbaa !11
  %42 = getelementptr inbounds %union.TValue, ptr %41, i64 -2
  %43 = getelementptr inbounds nuw %struct.GCRef, ptr %42, i32 0, i32 0
  %44 = load i64, ptr %43, align 8, !tbaa !18
  %45 = and i64 %44, 140737488355327
  %46 = inttoptr i64 %45 to ptr
  %47 = getelementptr inbounds nuw %struct.GCfuncC, ptr %46, i32 0, i32 3
  %48 = load i8, ptr %47, align 2, !tbaa !18
  %49 = zext i8 %48 to i32
  %50 = sub nsw i32 %49, 73
  store i32 %50, ptr %10, align 4, !tbaa !9
  call void @llvm.lifetime.start.p0(i64 8, ptr %11) #6
  call void @llvm.lifetime.start.p0(i64 8, ptr %12) #6
  %51 = load i32, ptr %10, align 4, !tbaa !9
  %52 = icmp sge i32 %51, 0
  %53 = select i1 %52, i64 0, i64 -1
  store i64 %53, ptr %12, align 8, !tbaa !17
  %54 = load ptr, ptr %3, align 8, !tbaa !4
  %55 = getelementptr inbounds nuw %struct.lua_State, ptr %54, i32 0, i32 7
  %56 = load ptr, ptr %55, align 8, !tbaa !11
  store ptr %56, ptr %5, align 8, !tbaa !19
  br label %57

57:                                               ; preds = %80, %33
  %58 = load ptr, ptr %8, align 8, !tbaa !23
  %59 = load ptr, ptr %9, align 8, !tbaa !25
  %60 = load ptr, ptr %5, align 8, !tbaa !19
  call void @lj_cconv_ct_tv(ptr noundef %58, ptr noundef %59, ptr noundef %11, ptr noundef %60, i32 noundef 0)
  %61 = load i32, ptr %10, align 4, !tbaa !9
  %62 = icmp slt i32 %61, 0
  br i1 %62, label %63, label %67

63:                                               ; preds = %57
  %64 = load i64, ptr %11, align 8, !tbaa !17
  %65 = load i64, ptr %12, align 8, !tbaa !17
  %66 = and i64 %65, %64
  store i64 %66, ptr %12, align 8, !tbaa !17
  br label %79

67:                                               ; preds = %57
  %68 = load i32, ptr %10, align 4, !tbaa !9
  %69 = icmp eq i32 %68, 0
  br i1 %69, label %70, label %74

70:                                               ; preds = %67
  %71 = load i64, ptr %11, align 8, !tbaa !17
  %72 = load i64, ptr %12, align 8, !tbaa !17
  %73 = or i64 %72, %71
  store i64 %73, ptr %12, align 8, !tbaa !17
  br label %78

74:                                               ; preds = %67
  %75 = load i64, ptr %11, align 8, !tbaa !17
  %76 = load i64, ptr %12, align 8, !tbaa !17
  %77 = xor i64 %76, %75
  store i64 %77, ptr %12, align 8, !tbaa !17
  br label %78

78:                                               ; preds = %74, %70
  br label %79

79:                                               ; preds = %78, %63
  br label %80

80:                                               ; preds = %79
  %81 = load ptr, ptr %5, align 8, !tbaa !19
  %82 = getelementptr inbounds nuw %union.TValue, ptr %81, i32 1
  store ptr %82, ptr %5, align 8, !tbaa !19
  %83 = load ptr, ptr %6, align 8, !tbaa !19
  %84 = icmp ult ptr %82, %83
  br i1 %84, label %57, label %85, !llvm.loop !27

85:                                               ; preds = %80
  %86 = load ptr, ptr %3, align 8, !tbaa !4
  %87 = load i32, ptr %4, align 4, !tbaa !9
  %88 = load i64, ptr %12, align 8, !tbaa !17
  %89 = call i32 @bit_result64(ptr noundef %86, i32 noundef %87, i64 noundef %88)
  store i32 %89, ptr %2, align 4
  store i32 1, ptr %13, align 4
  call void @llvm.lifetime.end.p0(i64 8, ptr %12) #6
  call void @llvm.lifetime.end.p0(i64 8, ptr %11) #6
  call void @llvm.lifetime.end.p0(i64 4, ptr %10) #6
  call void @llvm.lifetime.end.p0(i64 8, ptr %9) #6
  call void @llvm.lifetime.end.p0(i64 8, ptr %8) #6
  br label %91

90:                                               ; preds = %30
  store i32 0, ptr %2, align 4
  store i32 1, ptr %13, align 4
  br label %91

91:                                               ; preds = %90, %85
  call void @llvm.lifetime.end.p0(i64 4, ptr %7) #6
  call void @llvm.lifetime.end.p0(i64 8, ptr %6) #6
  call void @llvm.lifetime.end.p0(i64 8, ptr %5) #6
  call void @llvm.lifetime.end.p0(i64 4, ptr %4) #6
  %92 = load i32, ptr %2, align 4
  ret i32 %92
}