; Function Attrs: nounwind uwtable
define internal range(i32 0, 3) i32 @lj_ffh_bit_band(ptr noundef %0) #0 {
  %2 = alloca i32, align 4
  %3 = alloca i64, align 8
  call void @llvm.lifetime.start.p0(i64 4, ptr nonnull %2) #5
  store i32 0, ptr %2, align 4, !tbaa !4
  %4 = getelementptr inbounds nuw i8, ptr %0, i64 32
  %5 = load ptr, ptr %4, align 8, !tbaa !8
  %6 = getelementptr inbounds nuw i8, ptr %0, i64 40
  %7 = load ptr, ptr %6, align 8, !tbaa !21
  br label %8

8:                                                ; preds = %8, %1
  %.026 = phi i32 [ 0, %1 ], [ %9, %8 ]
  %.024 = phi ptr [ %5, %1 ], [ %11, %8 ]
  %9 = add nuw nsw i32 %.026, 1
  %10 = call i64 @lj_carith_check64(ptr noundef %0, i32 noundef %9, ptr noundef nonnull %2) #5
  %11 = getelementptr inbounds nuw i8, ptr %.024, i64 8
  %12 = icmp ult ptr %11, %7
  br i1 %12, label %8, label %13, !llvm.loop !22

13:                                               ; preds = %8
  %14 = load i32, ptr %2, align 4, !tbaa !4
  %.not = icmp eq i32 %14, 0
  br i1 %.not, label %57, label %15

15:                                               ; preds = %13
  %16 = getelementptr inbounds nuw i8, ptr %0, i64 16
  %17 = load i64, ptr %16, align 8, !tbaa !24
  %18 = inttoptr i64 %17 to ptr
  %19 = getelementptr inbounds nuw i8, ptr %18, i64 384
  %20 = load i64, ptr %19, align 8, !tbaa !25
  %21 = inttoptr i64 %20 to ptr
  %22 = getelementptr inbounds nuw i8, ptr %21, i64 16
  store ptr %0, ptr %22, align 8, !tbaa !36
  %23 = load ptr, ptr %21, align 8, !tbaa !45
  %24 = zext i32 %14 to i64
  %25 = getelementptr inbounds nuw %struct.CType, ptr %23, i64 %24
  %26 = load ptr, ptr %4, align 8, !tbaa !8
  %27 = getelementptr inbounds i8, ptr %26, i64 -16
  %28 = load i64, ptr %27, align 8, !tbaa !15
  %29 = and i64 %28, 140737488355327
  %30 = inttoptr i64 %29 to ptr
  %31 = getelementptr inbounds nuw i8, ptr %30, i64 10
  %32 = load i8, ptr %31, align 2, !tbaa !15
  %.fr38 = freeze i8 %32
  call void @llvm.lifetime.start.p0(i64 8, ptr nonnull %3) #5
  %33 = icmp ult i8 %.fr38, 73
  br i1 %33, label %.split.us, label %.split

.split.us:                                        ; preds = %15, %.split.us
  %.125.us = phi ptr [ %36, %.split.us ], [ %26, %15 ]
  %.0.us = phi i64 [ %35, %.split.us ], [ -1, %15 ]
  call void @lj_cconv_ct_tv(ptr noundef nonnull %21, ptr noundef nonnull %25, ptr noundef nonnull %3, ptr noundef nonnull %.125.us, i32 noundef 0) #5
  %34 = load i64, ptr %3, align 8, !tbaa !20
  %35 = and i64 %34, %.0.us
  %36 = getelementptr inbounds nuw i8, ptr %.125.us, i64 8
  %37 = icmp ult ptr %36, %7
  br i1 %37, label %.split.us, label %.split31.us, !llvm.loop !46

.split:                                           ; preds = %15
  %38 = icmp eq i8 %.fr38, 73
  br i1 %38, label %.split.split.us, label %.split.split

.split.split.us:                                  ; preds = %.split, %.split.split.us
  %.125.us32 = phi ptr [ %41, %.split.split.us ], [ %26, %.split ]
  %.0.us33 = phi i64 [ %40, %.split.split.us ], [ 0, %.split ]
  call void @lj_cconv_ct_tv(ptr noundef nonnull %21, ptr noundef nonnull %25, ptr noundef nonnull %3, ptr noundef nonnull %.125.us32, i32 noundef 0) #5
  %39 = load i64, ptr %3, align 8, !tbaa !20
  %40 = or i64 %39, %.0.us33
  %41 = getelementptr inbounds nuw i8, ptr %.125.us32, i64 8
  %42 = icmp ult ptr %41, %7
  br i1 %42, label %.split.split.us, label %.split31.us, !llvm.loop !46

.split.split:                                     ; preds = %.split, %.split.split
  %.125 = phi ptr [ %45, %.split.split ], [ %26, %.split ]
  %.0 = phi i64 [ %44, %.split.split ], [ 0, %.split ]
  call void @lj_cconv_ct_tv(ptr noundef nonnull %21, ptr noundef nonnull %25, ptr noundef nonnull %3, ptr noundef nonnull %.125, i32 noundef 0) #5
  %43 = load i64, ptr %3, align 8, !tbaa !20
  %44 = xor i64 %43, %.0
  %45 = getelementptr inbounds nuw i8, ptr %.125, i64 8
  %46 = icmp ult ptr %45, %7
  br i1 %46, label %.split.split, label %.split31.us, !llvm.loop !46

.split31.us:                                      ; preds = %.split.split, %.split.split.us, %.split.us
  %.us-phi = phi i64 [ %35, %.split.us ], [ %40, %.split.split.us ], [ %44, %.split.split ]
  %47 = load i32, ptr %2, align 4, !tbaa !4
  %48 = call ptr @lj_mem_newgco(ptr noundef %0, i64 noundef 24) #5
  %49 = getelementptr inbounds nuw i8, ptr %48, i64 9
  store i8 10, ptr %49, align 1, !tbaa !16
  %50 = trunc i32 %47 to i16
  %51 = getelementptr inbounds nuw i8, ptr %48, i64 10
  store i16 %50, ptr %51, align 2, !tbaa !19
  %52 = getelementptr inbounds nuw i8, ptr %48, i64 16
  store i64 %.us-phi, ptr %52, align 8, !tbaa !20
  %53 = load ptr, ptr %4, align 8, !tbaa !8
  %54 = getelementptr inbounds i8, ptr %53, i64 -16
  %55 = ptrtoint ptr %48 to i64
  %56 = or i64 %55, -1548112371908608
  store i64 %56, ptr %54, align 8, !tbaa !15
  call void @llvm.lifetime.end.p0(i64 8, ptr nonnull %3) #5
  br label %57

57:                                               ; preds = %13, %.split31.us
  %.023 = phi i32 [ 2, %.split31.us ], [ 0, %13 ]
  call void @llvm.lifetime.end.p0(i64 4, ptr nonnull %2) #5
  ret i32 %.023
}